; Function Attrs: mustprogress nounwind uwtable
define hidden void @_ZN13XNMethodTable17nmethods_do_beginEv() local_unnamed_addr #1 align 2 {
  %1 = load ptr, ptr @CodeCache_lock, align 8
  %.not.i.i = icmp eq ptr %1, null
  br i1 %.not.i.i, label %_ZN11MutexLockerC2EP5MutexNS0_18SafepointCheckFlagE.exit, label %2

2:                                                ; preds = %0
  tail call void @_ZN5Mutex28lock_without_safepoint_checkEv(ptr noundef nonnull align 8 dereferenceable(104) %1) #13
  br label %_ZN11MutexLockerC2EP5MutexNS0_18SafepointCheckFlagE.exit

_ZN11MutexLockerC2EP5MutexNS0_18SafepointCheckFlagE.exit: ; preds = %0, %2
  %3 = load ptr, ptr @_ZN13XNMethodTable12_safe_deleteE, align 8
  %.not.i.i1 = icmp eq ptr %3, null
  br i1 %.not.i.i1, label %_ZN7XLockerI5XLockEC2EPS0_.exit.thread.i, label %6

_ZN7XLockerI5XLockEC2EPS0_.exit.thread.i:         ; preds = %_ZN11MutexLockerC2EP5MutexNS0_18SafepointCheckFlagE.exit
  %4 = load i64, ptr getelementptr inbounds (i8, ptr @_ZN13XNMethodTable12_safe_deleteE, i64 8), align 8
  %5 = add i64 %4, 1
  store i64 %5, ptr getelementptr inbounds (i8, ptr @_ZN13XNMethodTable12_safe_deleteE, i64 8), align 8
  br label %_ZN15XSafeDeleteImplIA_18XNMethodTableEntryE22enable_deferred_deleteEv.exit

6:                                                ; preds = %_ZN11MutexLockerC2EP5MutexNS0_18SafepointCheckFlagE.exit
  %7 = tail call i32 @pthread_mutex_lock(ptr noundef nonnull %3) #13
  %8 = load i64, ptr getelementptr inbounds (i8, ptr @_ZN13XNMethodTable12_safe_deleteE, i64 8), align 8
  %9 = add i64 %8, 1
  store i64 %9, ptr getelementptr inbounds (i8, ptr @_ZN13XNMethodTable12_safe_deleteE, i64 8), align 8
  %10 = tail call i32 @pthread_mutex_unlock(ptr noundef nonnull %3) #13
  br label %_ZN15XSafeDeleteImplIA_18XNMethodTableEntryE22enable_deferred_deleteEv.exit

_ZN15XSafeDeleteImplIA_18XNMethodTableEntryE22enable_deferred_deleteEv.exit: ; preds = %_ZN7XLockerI5XLockEC2EPS0_.exit.thread.i, %6
  %11 = load ptr, ptr @_ZN13XNMethodTable6_tableE, align 8
  %12 = load i64, ptr @_ZN13XNMethodTable5_sizeE, align 8
  tail call void @_ZN22XNMethodTableIteration17nmethods_do_beginEP18XNMethodTableEntrym(ptr noundef nonnull align 64 dereferenceable(72) @_ZN13XNMethodTable10_iterationE, ptr noundef %11, i64 noundef %12) #13
  br i1 %.not.i.i, label %_ZN11MutexLockerD2Ev.exit, label %13

13:                                               ; preds = %_ZN15XSafeDeleteImplIA_18XNMethodTableEntryE22enable_deferred_deleteEv.exit
  tail call void @_ZN5Mutex6unlockEv(ptr noundef nonnull align 8 dereferenceable(104) %1) #13
  br label %_ZN11MutexLockerD2Ev.exit

_ZN11MutexLockerD2Ev.exit:                        ; preds = %_ZN15XSafeDeleteImplIA_18XNMethodTableEntryE22enable_deferred_deleteEv.exit, %13
  ret void
}